target datalayout = "e-m:e-p270:32:32-p271:32:32-p272:64:64-i64:64-i128:128-f80:128-n8:16:32:64-S128"
target triple = "x86_64-pc-linux-gnu"

%struct.RBasic = type { i64, i64 }
%struct.RString = type { %struct.RBasic, i64, %union.anon.33 }
%union.anon.33 = type { %struct.anon.34 }
%struct.anon.34 = type { ptr, %union.anon.35 }
%union.anon.35 = type { i64 }
%struct.passwd = type { ptr, ptr, i32, i32, ptr, ptr, ptr }
%struct.getpwuid_r_args = type { i32, ptr, i64, ptr, %struct.passwd }
%struct.anon.36 = type { [1 x i8] }

@.str.21 = private unnamed_addr constant [11 x i8] c"getpwuid_r\00", align 1

; Function Attrs: inlinehint nounwind sspstrong willreturn memory(read) uwtable
define internal i64 @RB_FL_TEST_RAW(i64 noundef %0, i64 noundef %1) #5 {
  %3 = alloca i64, align 8
  %4 = alloca i64, align 8
  store i64 %0, ptr %3, align 8, !tbaa !35
  store i64 %1, ptr %4, align 8, !tbaa !35
  %5 = load i64, ptr %3, align 8, !tbaa !35
  %6 = inttoptr i64 %5 to ptr
  %7 = getelementptr inbounds nuw %struct.RBasic, ptr %6, i32 0, i32 0
  %8 = load i64, ptr %7, align 8, !tbaa !215
  %9 = load i64, ptr %4, align 8, !tbaa !35
  %10 = and i64 %8, %9
  ret i64 %10
}

; Function Attrs: inlinehint nounwind sspstrong willreturn memory(read) uwtable
define internal i64 @RSTRING_LEN(i64 noundef %0) #5 {
  %2 = alloca i64, align 8
  store i64 %0, ptr %2, align 8, !tbaa !35
  %3 = load i64, ptr %2, align 8, !tbaa !35
  %4 = inttoptr i64 %3 to ptr
  %5 = getelementptr inbounds nuw %struct.RString, ptr %4, i32 0, i32 1
  %6 = load i64, ptr %5, align 8, !tbaa !266
  ret i64 %6
}

; Function Attrs: inlinehint nounwind sspstrong willreturn memory(read) uwtable
define internal zeroext i1 @RB_FL_ANY_RAW(i64 noundef %0, i64 noundef %1) #5 {
  %3 = alloca i64, align 8
  %4 = alloca i64, align 8
  store i64 %0, ptr %3, align 8, !tbaa !35
  store i64 %1, ptr %4, align 8, !tbaa !35
  %5 = load i64, ptr %3, align 8, !tbaa !35
  %6 = load i64, ptr %4, align 8, !tbaa !35
  %7 = call i64 @RB_FL_TEST_RAW(i64 noundef %5, i64 noundef %6) #29
  %8 = icmp ne i64 %7, 0
  ret i1 %8
}

; Function Attrs: inlinehint nounwind sspstrong willreturn memory(read, argmem: readwrite) uwtable
define internal void @rbimpl_rstring_getmem(ptr dead_on_unwind noalias writable sret(%struct.RString) align 8 %0, i64 noundef %1) #21 {
  %3 = alloca i64, align 8
  store i64 %1, ptr %3, align 8, !tbaa !35
  %4 = load i64, ptr %3, align 8, !tbaa !35
  %5 = call zeroext i1 @RB_FL_ANY_RAW(i64 noundef %4, i64 noundef 8192) #29
  br i1 %5, label %6, label %9

6:                                                ; preds = %2
  %7 = load i64, ptr %3, align 8, !tbaa !35
  %8 = inttoptr i64 %7 to ptr
  call void @llvm.memcpy.p0.p0.i64(ptr align 8 %0, ptr align 8 %8, i64 40, i1 false), !tbaa.struct !274
  br label %20

9:                                                ; preds = %2
  %10 = load i64, ptr %3, align 8, !tbaa !35
  %11 = call i64 @RSTRING_LEN(i64 noundef %10) #29
  %12 = getelementptr inbounds nuw %struct.RString, ptr %0, i32 0, i32 1
  store i64 %11, ptr %12, align 8, !tbaa !266
  %13 = load i64, ptr %3, align 8, !tbaa !35
  %14 = inttoptr i64 %13 to ptr
  %15 = getelementptr inbounds nuw %struct.RString, ptr %14, i32 0, i32 2
  %16 = getelementptr inbounds nuw %struct.anon.36, ptr %15, i32 0, i32 0
  %17 = getelementptr inbounds [1 x i8], ptr %16, i64 0, i64 0
  %18 = getelementptr inbounds nuw %struct.RString, ptr %0, i32 0, i32 2
  %19 = getelementptr inbounds nuw %struct.anon.34, ptr %18, i32 0, i32 0
  store ptr %17, ptr %19, align 8, !tbaa !66
  br label %20

20:                                               ; preds = %9, %6
  ret void
}

; Function Attrs: inlinehint nounwind sspstrong uwtable
define internal zeroext i1 @pwd_not_found(i32 noundef %0) #1 {
  %2 = alloca i1, align 1
  %3 = alloca i32, align 4
  store i32 %0, ptr %3, align 4, !tbaa !34
  %4 = load i32, ptr %3, align 4, !tbaa !34
  switch i32 %4, label %6 [
    i32 0, label %5
    i32 2, label %5
    i32 3, label %5
    i32 9, label %5
    i32 1, label %5
  ]

5:                                                ; preds = %1, %1, %1, %1, %1
  store i1 true, ptr %2, align 1
  br label %7

6:                                                ; preds = %1
  store i1 false, ptr %2, align 1
  br label %7

7:                                                ; preds = %6, %5
  %8 = load i1, ptr %2, align 1
  ret i1 %8
}

; Function Attrs: inlinehint nounwind sspstrong uwtable
define internal ptr @RSTRING_PTR(i64 noundef %0) #1 {
  %2 = alloca i64, align 8
  %3 = alloca ptr, align 8
  %4 = alloca %struct.RString, align 8
  store i64 %0, ptr %2, align 8, !tbaa !35
  call void @llvm.lifetime.start.p0(i64 8, ptr %3) #27
  %5 = load i64, ptr %2, align 8, !tbaa !35
  call void @rbimpl_rstring_getmem(ptr dead_on_unwind writable sret(%struct.RString) align 8 %4, i64 noundef %5) #33
  %6 = getelementptr inbounds nuw %struct.RString, ptr %4, i32 0, i32 2
  %7 = getelementptr inbounds nuw %struct.anon.34, ptr %6, i32 0, i32 0
  %8 = load ptr, ptr %7, align 8, !tbaa !66
  store ptr %8, ptr %3, align 8, !tbaa !64
  %9 = load ptr, ptr %3, align 8, !tbaa !64
  call void @llvm.lifetime.end.p0(i64 8, ptr %3) #27
  ret ptr %9
}

; Function Attrs: nounwind sspstrong uwtable
define hidden i64 @rb_getpwdiruid() #0 {
  %1 = alloca i64, align 8
  %2 = alloca i32, align 4
  %3 = alloca ptr, align 8
  %4 = alloca i64, align 8
  %5 = alloca i64, align 8
  %6 = alloca %struct.getpwuid_r_args, align 8
  %7 = alloca i32, align 4
  %8 = alloca i32, align 4
  %9 = alloca i64, align 8
  call void @llvm.lifetime.start.p0(i64 4, ptr %2) #27
  %10 = call i32 @getuid() #27
  store i32 %10, ptr %2, align 4, !tbaa !34
  call void @llvm.lifetime.start.p0(i64 8, ptr %3) #27
  call void @llvm.lifetime.start.p0(i64 8, ptr %4) #27
  %11 = call i64 @sysconf(i32 noundef 70) #27
  store i64 %11, ptr %4, align 8, !tbaa !35
  %12 = load i64, ptr %4, align 8, !tbaa !35
  %13 = icmp slt i64 %12, 0
  br i1 %13, label %14, label %15

14:                                               ; preds = %0
  store i64 4096, ptr %4, align 8, !tbaa !35
  br label %15

15:                                               ; preds = %14, %0
  call void @llvm.lifetime.start.p0(i64 8, ptr %5) #27
  %16 = load i64, ptr %4, align 8, !tbaa !35
  %17 = call i64 @rb_str_tmp_new(i64 noundef %16)
  store i64 %17, ptr %5, align 8, !tbaa !35
  %18 = load i64, ptr %5, align 8, !tbaa !35
  %19 = call ptr @RSTRING_PTR(i64 noundef %18)
  store ptr %19, ptr %3, align 8, !tbaa !64
  %20 = load i64, ptr %5, align 8, !tbaa !35
  %21 = call i64 @rb_str_capacity(i64 noundef %20) #29
  store i64 %21, ptr %4, align 8, !tbaa !35
  %22 = load i64, ptr %5, align 8, !tbaa !35
  %23 = load i64, ptr %4, align 8, !tbaa !35
  call void @rb_str_set_len(i64 noundef %22, i64 noundef %23)
  call void @llvm.lifetime.start.p0(i64 80, ptr %6) #27
  call void @llvm.memset.p0.i64(ptr align 8 %6, i8 0, i64 80, i1 false)
  %24 = getelementptr inbounds nuw %struct.getpwuid_r_args, ptr %6, i32 0, i32 0
  %25 = load i32, ptr %2, align 4, !tbaa !34
  store i32 %25, ptr %24, align 8, !tbaa !170
  %26 = getelementptr inbounds nuw %struct.getpwuid_r_args, ptr %6, i32 0, i32 1
  %27 = load ptr, ptr %3, align 8, !tbaa !64
  store ptr %27, ptr %26, align 8, !tbaa !172
  %28 = getelementptr inbounds nuw %struct.getpwuid_r_args, ptr %6, i32 0, i32 2
  %29 = load i64, ptr %4, align 8, !tbaa !35
  store i64 %29, ptr %28, align 8, !tbaa !173
  call void @llvm.lifetime.start.p0(i64 4, ptr %7) #27
  br label %30

30:                                               ; preds = %52, %15
  %31 = call ptr @rb_nogvl(ptr noundef @nogvl_getpwuid_r, ptr noundef %6, ptr noundef inttoptr (i64 -1 to ptr), ptr noundef null, i32 noundef 4)
  %32 = ptrtoint ptr %31 to i64
  %33 = trunc i64 %32 to i32
  store i32 %33, ptr %7, align 4, !tbaa !34
  %34 = icmp ne i32 %33, 0
  br i1 %34, label %35, label %62

35:                                               ; preds = %30
  %36 = load i32, ptr %7, align 4, !tbaa !34
  %37 = call zeroext i1 @pwd_not_found(i32 noundef %36)
  br i1 %37, label %38, label %41

38:                                               ; preds = %35
  %39 = load i64, ptr %5, align 8, !tbaa !35
  %40 = call i64 @rb_str_resize(i64 noundef %39, i64 noundef 0)
  store i64 4, ptr %1, align 8
  store i32 1, ptr %8, align 4
  br label %78

41:                                               ; preds = %35
  %42 = load i32, ptr %7, align 4, !tbaa !34
  %43 = icmp ne i32 %42, 34
  br i1 %43, label %48, label %44

44:                                               ; preds = %41
  %45 = getelementptr inbounds nuw %struct.getpwuid_r_args, ptr %6, i32 0, i32 2
  %46 = load i64, ptr %45, align 8, !tbaa !173
  %47 = icmp uge i64 %46, 65536
  br i1 %47, label %48, label %52

48:                                               ; preds = %44, %41
  %49 = load i64, ptr %5, align 8, !tbaa !35
  %50 = call i64 @rb_str_resize(i64 noundef %49, i64 noundef 0)
  %51 = load i32, ptr %7, align 4, !tbaa !34
  call void @rb_syserr_fail(i32 noundef %51, ptr noundef @.str.21) #30
  unreachable

52:                                               ; preds = %44
  %53 = load i64, ptr %5, align 8, !tbaa !35
  %54 = getelementptr inbounds nuw %struct.getpwuid_r_args, ptr %6, i32 0, i32 2
  %55 = load i64, ptr %54, align 8, !tbaa !173
  call void @rb_str_modify_expand(i64 noundef %53, i64 noundef %55)
  %56 = load i64, ptr %5, align 8, !tbaa !35
  %57 = call ptr @RSTRING_PTR(i64 noundef %56)
  %58 = getelementptr inbounds nuw %struct.getpwuid_r_args, ptr %6, i32 0, i32 1
  store ptr %57, ptr %58, align 8, !tbaa !172
  %59 = load i64, ptr %5, align 8, !tbaa !35
  %60 = call i64 @rb_str_capacity(i64 noundef %59) #29
  %61 = getelementptr inbounds nuw %struct.getpwuid_r_args, ptr %6, i32 0, i32 2
  store i64 %60, ptr %61, align 8, !tbaa !173
  br label %30, !llvm.loop !174

62:                                               ; preds = %30
  %63 = getelementptr inbounds nuw %struct.getpwuid_r_args, ptr %6, i32 0, i32 3
  %64 = load ptr, ptr %63, align 8, !tbaa !175
  %65 = icmp eq ptr %64, null
  br i1 %65, label %66, label %69

66:                                               ; preds = %62
  %67 = load i64, ptr %5, align 8, !tbaa !35
  %68 = call i64 @rb_str_resize(i64 noundef %67, i64 noundef 0)
  store i64 4, ptr %1, align 8
  store i32 1, ptr %8, align 4
  br label %78

69:                                               ; preds = %62
  call void @llvm.lifetime.start.p0(i64 8, ptr %9) #27
  %70 = getelementptr inbounds nuw %struct.getpwuid_r_args, ptr %6, i32 0, i32 3
  %71 = load ptr, ptr %70, align 8, !tbaa !175
  %72 = getelementptr inbounds nuw %struct.passwd, ptr %71, i32 0, i32 5
  %73 = load ptr, ptr %72, align 8, !tbaa !167
  %74 = call i64 @rb_str_new_cstr(ptr noundef %73)
  store i64 %74, ptr %9, align 8, !tbaa !35
  %75 = load i64, ptr %5, align 8, !tbaa !35
  %76 = call i64 @rb_str_resize(i64 noundef %75, i64 noundef 0)
  %77 = load i64, ptr %9, align 8, !tbaa !35
  store i64 %77, ptr %1, align 8
  store i32 1, ptr %8, align 4
  call void @llvm.lifetime.end.p0(i64 8, ptr %9) #27
  br label %78

78:                                               ; preds = %69, %66, %38
  call void @llvm.lifetime.end.p0(i64 4, ptr %7) #27
  call void @llvm.lifetime.end.p0(i64 80, ptr %6) #27
  call void @llvm.lifetime.end.p0(i64 8, ptr %5) #27
  call void @llvm.lifetime.end.p0(i64 8, ptr %4) #27
  call void @llvm.lifetime.end.p0(i64 8, ptr %3) #27
  call void @llvm.lifetime.end.p0(i64 4, ptr %2) #27
  %79 = load i64, ptr %1, align 8
  ret i64 %79
}