; Function Attrs: nounwind sspstrong uwtable
define hidden i64 @rb_getpwdiruid() local_unnamed_addr #1 {
  %1 = alloca %struct.getpwuid_r_args, align 8
  %2 = tail call i32 @getuid() #27
  %3 = tail call i64 @sysconf(i32 noundef 70) #27
  %4 = icmp slt i64 %3, 0
  %spec.store.select = select i1 %4, i64 4096, i64 %3
  %5 = tail call i64 @rb_str_tmp_new(i64 noundef %spec.store.select) #27
  %6 = inttoptr i64 %5 to ptr
  %7 = load i64, ptr %6, align 8, !tbaa !69, !noalias !228
  %8 = and i64 %7, 8192
  %.not.i.i = icmp eq i64 %8, 0
  %9 = getelementptr inbounds nuw i8, ptr %6, i64 24
  br i1 %.not.i.i, label %RSTRING_PTR.exit, label %10

10:                                               ; preds = %0
  %.sroa.2.0.copyload.i = load ptr, ptr %9, align 8
  br label %RSTRING_PTR.exit

RSTRING_PTR.exit:                                 ; preds = %0, %10
  %.sroa.2.0.i = phi ptr [ %.sroa.2.0.copyload.i, %10 ], [ %9, %0 ]
  %11 = tail call i64 @rb_str_capacity(i64 noundef %5) #28
  tail call void @rb_str_set_len(i64 noundef %5, i64 noundef %11) #27
  call void @llvm.lifetime.start.p0(i64 80, ptr nonnull %1) #27
  call void @llvm.memset.p0.i64(ptr noundef nonnull align 8 dereferenceable(80) %1, i8 0, i64 80, i1 false)
  store i32 %2, ptr %1, align 8, !tbaa !231
  %12 = getelementptr inbounds nuw i8, ptr %1, i64 8
  store ptr %.sroa.2.0.i, ptr %12, align 8, !tbaa !233
  %13 = getelementptr inbounds nuw i8, ptr %1, i64 16
  br label %14

14:                                               ; preds = %RSTRING_PTR.exit28, %RSTRING_PTR.exit
  %storemerge = phi i64 [ %11, %RSTRING_PTR.exit ], [ %27, %RSTRING_PTR.exit28 ]
  store i64 %storemerge, ptr %13, align 8, !tbaa !234
  %15 = call ptr @rb_nogvl(ptr noundef nonnull @nogvl_getpwuid_r, ptr noundef nonnull %1, ptr noundef nonnull inttoptr (i64 -1 to ptr), ptr noundef null, i32 noundef 4) #27
  %16 = ptrtoint ptr %15 to i64
  %17 = trunc i64 %16 to i32
  switch i32 %17, label %pwd_not_found.exit [
    i32 0, label %28
    i32 1, label %.loopexit
    i32 2, label %.loopexit
    i32 3, label %.loopexit
    i32 9, label %.loopexit
  ]

pwd_not_found.exit:                               ; preds = %14
  %18 = icmp ne i32 %17, 34
  %19 = load i64, ptr %13, align 8
  %20 = icmp ugt i64 %19, 65535
  %or.cond = select i1 %18, i1 true, i1 %20
  br i1 %or.cond, label %21, label %23

21:                                               ; preds = %pwd_not_found.exit
  %22 = call i64 @rb_str_resize(i64 noundef %5, i64 noundef 0) #27
  call void @rb_syserr_fail(i32 noundef %17, ptr noundef nonnull @.str.21) #29
  unreachable

23:                                               ; preds = %pwd_not_found.exit
  call void @rb_str_modify_expand(i64 noundef %5, i64 noundef %19) #27
  %24 = load i64, ptr %6, align 8, !tbaa !69, !noalias !235
  %25 = and i64 %24, 8192
  %.not.i.i25 = icmp eq i64 %25, 0
  br i1 %.not.i.i25, label %RSTRING_PTR.exit28, label %26

26:                                               ; preds = %23
  %.sroa.2.0.copyload.i26 = load ptr, ptr %9, align 8
  br label %RSTRING_PTR.exit28

RSTRING_PTR.exit28:                               ; preds = %23, %26
  %.sroa.2.0.i27 = phi ptr [ %.sroa.2.0.copyload.i26, %26 ], [ %9, %23 ]
  store ptr %.sroa.2.0.i27, ptr %12, align 8, !tbaa !233
  %27 = call i64 @rb_str_capacity(i64 noundef %5) #28
  br label %14, !llvm.loop !238

28:                                               ; preds = %14
  %29 = getelementptr inbounds nuw i8, ptr %1, i64 24
  %30 = load ptr, ptr %29, align 8, !tbaa !239
  %31 = icmp eq ptr %30, null
  br i1 %31, label %.loopexit, label %32

32:                                               ; preds = %28
  %33 = getelementptr inbounds nuw i8, ptr %30, i64 32
  %34 = load ptr, ptr %33, align 8, !tbaa !227
  %35 = call i64 @rb_str_new_cstr(ptr noundef %34) #27
  br label %.loopexit

.loopexit:                                        ; preds = %14, %14, %14, %14, %28, %32
  %.0 = phi i64 [ %35, %32 ], [ 4, %28 ], [ 4, %14 ], [ 4, %14 ], [ 4, %14 ], [ 4, %14 ]
  %36 = call i64 @rb_str_resize(i64 noundef %5, i64 noundef 0) #27
  call void @llvm.lifetime.end.p0(i64 80, ptr nonnull %1) #27
  ret i64 %.0
}